; Function Attrs: nofree norecurse nosync nounwind memory(argmem: readwrite) uwtable
define internal void @vc1_inv_trans_8x4_dc_c(ptr noundef captures(none) %0, i64 noundef %1, ptr noundef readonly captures(none) %2) #1 {
.lver.check:
  %3 = load i16, ptr %2, align 2, !tbaa !34
  %4 = sext i16 %3 to i32
  %5 = mul nsw i32 %4, 3
  %6 = add nsw i32 %5, 1
  %7 = ashr i32 %6, 1
  %8 = mul nsw i32 %7, 17
  %9 = add nsw i32 %8, 64
  %10 = ashr i32 %9, 7
  %ident.check.not = icmp eq i64 %1, 1
  br i1 %ident.check.not, label %.ph, label %.ph.lver.orig

.ph.lver.orig:                                    ; preds = %.lver.check, %.ph.lver.orig
  %.053.lver.orig = phi i32 [ %59, %.ph.lver.orig ], [ 0, %.lver.check ]
  %.03052.lver.orig = phi ptr [ %58, %.ph.lver.orig ], [ %0, %.lver.check ]
  %11 = load i8, ptr %.03052.lver.orig, align 1, !tbaa !40
  %12 = zext i8 %11 to i32
  %13 = add nsw i32 %10, %12
  %.not.i.lver.orig = icmp ult i32 %13, 256
  %isnotneg.i.lver.orig = icmp sgt i32 %13, -1
  %14 = sext i1 %isnotneg.i.lver.orig to i8
  %15 = trunc nuw i32 %13 to i8
  %.0.i.lver.orig = select i1 %.not.i.lver.orig, i8 %15, i8 %14
  store i8 %.0.i.lver.orig, ptr %.03052.lver.orig, align 1, !tbaa !40
  %16 = getelementptr inbounds nuw i8, ptr %.03052.lver.orig, i64 1
  %17 = load i8, ptr %16, align 1, !tbaa !40
  %18 = zext i8 %17 to i32
  %19 = add nsw i32 %10, %18
  %.not.i31.lver.orig = icmp ult i32 %19, 256
  %isnotneg.i32.lver.orig = icmp sgt i32 %19, -1
  %20 = sext i1 %isnotneg.i32.lver.orig to i8
  %21 = trunc nuw i32 %19 to i8
  %.0.i33.lver.orig = select i1 %.not.i31.lver.orig, i8 %21, i8 %20
  store i8 %.0.i33.lver.orig, ptr %16, align 1, !tbaa !40
  %22 = getelementptr inbounds nuw i8, ptr %.03052.lver.orig, i64 2
  %23 = load i8, ptr %22, align 1, !tbaa !40
  %24 = zext i8 %23 to i32
  %25 = add nsw i32 %10, %24
  %.not.i34.lver.orig = icmp ult i32 %25, 256
  %isnotneg.i35.lver.orig = icmp sgt i32 %25, -1
  %26 = sext i1 %isnotneg.i35.lver.orig to i8
  %27 = trunc nuw i32 %25 to i8
  %.0.i36.lver.orig = select i1 %.not.i34.lver.orig, i8 %27, i8 %26
  store i8 %.0.i36.lver.orig, ptr %22, align 1, !tbaa !40
  %28 = getelementptr inbounds nuw i8, ptr %.03052.lver.orig, i64 3
  %29 = load i8, ptr %28, align 1, !tbaa !40
  %30 = zext i8 %29 to i32
  %31 = add nsw i32 %10, %30
  %.not.i37.lver.orig = icmp ult i32 %31, 256
  %isnotneg.i38.lver.orig = icmp sgt i32 %31, -1
  %32 = sext i1 %isnotneg.i38.lver.orig to i8
  %33 = trunc nuw i32 %31 to i8
  %.0.i39.lver.orig = select i1 %.not.i37.lver.orig, i8 %33, i8 %32
  store i8 %.0.i39.lver.orig, ptr %28, align 1, !tbaa !40
  %34 = getelementptr inbounds nuw i8, ptr %.03052.lver.orig, i64 4
  %35 = load i8, ptr %34, align 1, !tbaa !40
  %36 = zext i8 %35 to i32
  %37 = add nsw i32 %10, %36
  %.not.i40.lver.orig = icmp ult i32 %37, 256
  %isnotneg.i41.lver.orig = icmp sgt i32 %37, -1
  %38 = sext i1 %isnotneg.i41.lver.orig to i8
  %39 = trunc nuw i32 %37 to i8
  %.0.i42.lver.orig = select i1 %.not.i40.lver.orig, i8 %39, i8 %38
  store i8 %.0.i42.lver.orig, ptr %34, align 1, !tbaa !40
  %40 = getelementptr inbounds nuw i8, ptr %.03052.lver.orig, i64 5
  %41 = load i8, ptr %40, align 1, !tbaa !40
  %42 = zext i8 %41 to i32
  %43 = add nsw i32 %10, %42
  %.not.i43.lver.orig = icmp ult i32 %43, 256
  %isnotneg.i44.lver.orig = icmp sgt i32 %43, -1
  %44 = sext i1 %isnotneg.i44.lver.orig to i8
  %45 = trunc nuw i32 %43 to i8
  %.0.i45.lver.orig = select i1 %.not.i43.lver.orig, i8 %45, i8 %44
  store i8 %.0.i45.lver.orig, ptr %40, align 1, !tbaa !40
  %46 = getelementptr inbounds nuw i8, ptr %.03052.lver.orig, i64 6
  %47 = load i8, ptr %46, align 1, !tbaa !40
  %48 = zext i8 %47 to i32
  %49 = add nsw i32 %10, %48
  %.not.i46.lver.orig = icmp ult i32 %49, 256
  %isnotneg.i47.lver.orig = icmp sgt i32 %49, -1
  %50 = sext i1 %isnotneg.i47.lver.orig to i8
  %51 = trunc nuw i32 %49 to i8
  %.0.i48.lver.orig = select i1 %.not.i46.lver.orig, i8 %51, i8 %50
  store i8 %.0.i48.lver.orig, ptr %46, align 1, !tbaa !40
  %52 = getelementptr inbounds nuw i8, ptr %.03052.lver.orig, i64 7
  %53 = load i8, ptr %52, align 1, !tbaa !40
  %54 = zext i8 %53 to i32
  %55 = add nsw i32 %10, %54
  %.not.i49.lver.orig = icmp ult i32 %55, 256
  %isnotneg.i50.lver.orig = icmp sgt i32 %55, -1
  %56 = sext i1 %isnotneg.i50.lver.orig to i8
  %57 = trunc nuw i32 %55 to i8
  %.0.i51.lver.orig = select i1 %.not.i49.lver.orig, i8 %57, i8 %56
  store i8 %.0.i51.lver.orig, ptr %52, align 1, !tbaa !40
  %58 = getelementptr inbounds i8, ptr %.03052.lver.orig, i64 %1
  %59 = add nuw nsw i32 %.053.lver.orig, 1
  %exitcond.not.lver.orig = icmp eq i32 %59, 4
  br i1 %exitcond.not.lver.orig, label %.loopexit, label %.ph.lver.orig, !llvm.loop !48

.ph:                                              ; preds = %.lver.check
  %scevgep = getelementptr i8, ptr %0, i64 6
  %load_initial = load i8, ptr %scevgep, align 1
  br label %60

60:                                               ; preds = %.ph, %60
  %store_forwarded = phi i8 [ %load_initial, %.ph ], [ %.0.i51, %60 ]
  %.053 = phi i32 [ 0, %.ph ], [ %108, %60 ]
  %.03052 = phi ptr [ %0, %.ph ], [ %107, %60 ]
  %61 = load i8, ptr %.03052, align 1, !tbaa !40
  %62 = zext i8 %61 to i32
  %63 = add nsw i32 %10, %62
  %.not.i = icmp ult i32 %63, 256
  %isnotneg.i = icmp sgt i32 %63, -1
  %64 = sext i1 %isnotneg.i to i8
  %65 = trunc nuw i32 %63 to i8
  %.0.i = select i1 %.not.i, i8 %65, i8 %64
  store i8 %.0.i, ptr %.03052, align 1, !tbaa !40
  %66 = getelementptr inbounds nuw i8, ptr %.03052, i64 1
  %67 = load i8, ptr %66, align 1, !tbaa !40
  %68 = zext i8 %67 to i32
  %69 = add nsw i32 %10, %68
  %.not.i31 = icmp ult i32 %69, 256
  %isnotneg.i32 = icmp sgt i32 %69, -1
  %70 = sext i1 %isnotneg.i32 to i8
  %71 = trunc nuw i32 %69 to i8
  %.0.i33 = select i1 %.not.i31, i8 %71, i8 %70
  store i8 %.0.i33, ptr %66, align 1, !tbaa !40
  %72 = getelementptr inbounds nuw i8, ptr %.03052, i64 2
  %73 = load i8, ptr %72, align 1, !tbaa !40
  %74 = zext i8 %73 to i32
  %75 = add nsw i32 %10, %74
  %.not.i34 = icmp ult i32 %75, 256
  %isnotneg.i35 = icmp sgt i32 %75, -1
  %76 = sext i1 %isnotneg.i35 to i8
  %77 = trunc nuw i32 %75 to i8
  %.0.i36 = select i1 %.not.i34, i8 %77, i8 %76
  store i8 %.0.i36, ptr %72, align 1, !tbaa !40
  %78 = getelementptr inbounds nuw i8, ptr %.03052, i64 3
  %79 = load i8, ptr %78, align 1, !tbaa !40
  %80 = zext i8 %79 to i32
  %81 = add nsw i32 %10, %80
  %.not.i37 = icmp ult i32 %81, 256
  %isnotneg.i38 = icmp sgt i32 %81, -1
  %82 = sext i1 %isnotneg.i38 to i8
  %83 = trunc nuw i32 %81 to i8
  %.0.i39 = select i1 %.not.i37, i8 %83, i8 %82
  store i8 %.0.i39, ptr %78, align 1, !tbaa !40
  %84 = getelementptr inbounds nuw i8, ptr %.03052, i64 4
  %85 = load i8, ptr %84, align 1, !tbaa !40
  %86 = zext i8 %85 to i32
  %87 = add nsw i32 %10, %86
  %.not.i40 = icmp ult i32 %87, 256
  %isnotneg.i41 = icmp sgt i32 %87, -1
  %88 = sext i1 %isnotneg.i41 to i8
  %89 = trunc nuw i32 %87 to i8
  %.0.i42 = select i1 %.not.i40, i8 %89, i8 %88
  store i8 %.0.i42, ptr %84, align 1, !tbaa !40
  %90 = getelementptr inbounds nuw i8, ptr %.03052, i64 5
  %91 = load i8, ptr %90, align 1, !tbaa !40
  %92 = zext i8 %91 to i32
  %93 = add nsw i32 %10, %92
  %.not.i43 = icmp ult i32 %93, 256
  %isnotneg.i44 = icmp sgt i32 %93, -1
  %94 = sext i1 %isnotneg.i44 to i8
  %95 = trunc nuw i32 %93 to i8
  %.0.i45 = select i1 %.not.i43, i8 %95, i8 %94
  store i8 %.0.i45, ptr %90, align 1, !tbaa !40
  %96 = getelementptr inbounds nuw i8, ptr %.03052, i64 6
  %97 = zext i8 %store_forwarded to i32
  %98 = add nsw i32 %10, %97
  %.not.i46 = icmp ult i32 %98, 256
  %isnotneg.i47 = icmp sgt i32 %98, -1
  %99 = sext i1 %isnotneg.i47 to i8
  %100 = trunc nuw i32 %98 to i8
  %.0.i48 = select i1 %.not.i46, i8 %100, i8 %99
  store i8 %.0.i48, ptr %96, align 1, !tbaa !40
  %101 = getelementptr inbounds nuw i8, ptr %.03052, i64 7
  %102 = load i8, ptr %101, align 1, !tbaa !40
  %103 = zext i8 %102 to i32
  %104 = add nsw i32 %10, %103
  %.not.i49 = icmp ult i32 %104, 256
  %isnotneg.i50 = icmp sgt i32 %104, -1
  %105 = sext i1 %isnotneg.i50 to i8
  %106 = trunc nuw i32 %104 to i8
  %.0.i51 = select i1 %.not.i49, i8 %106, i8 %105
  store i8 %.0.i51, ptr %101, align 1, !tbaa !40
  %107 = getelementptr inbounds nuw i8, ptr %.03052, i64 %1
  %108 = add nuw nsw i32 %.053, 1
  %exitcond.not = icmp eq i32 %108, 4
  br i1 %exitcond.not, label %.loopexit, label %60, !llvm.loop !48

.loopexit:                                        ; preds = %.ph.lver.orig, %60
  ret void
}